Certificate:
    Data:
        Version: 1 (0x0)
        Serial Number: 10734611180456597475 (0x94f8fffe850d57e3)
    Signature Algorithm: sha1WithRSAEncryption
        Issuer: O=ksnctf, CN=ksnctf.sweetduet.info
        Validity
            Not Before: Nov  4 01:49:56 2013 GMT
            Not After : Nov  2 01:49:56 2023 GMT
        Subject: O=ksnctf, CN=ksnctf.sweetduet.info
        Subject Public Key Info:
            Public Key Algorithm: rsaEncryption
                Public-Key: (2048 bit)
                Modulus:
                    00:ba:7d:3b:1e:d6:7d:7e:cf:ad:8d:53:6b:ee:35:
                    31:74:7b:e9:4e:a9:e4:ac:14:03:a3:30:0f:be:fd:
                    fc:4e:e2:41:36:25:19:fb:8e:28:ba:a2:72:79:40:
                    8d:30:3f:38:c3:ae:19:72:b2:cd:5b:15:2e:da:a2:
                    e9:a2:92:23:f1:c9:11:99:a0:37:4c:5a:06:d1:8c:
                    0b:55:d7:67:b7:84:45:be:75:5c:65:78:7a:8b:c5:
                    e0:a9:28:87:28:45:7c:91:44:1e:03:21:65:06:c8:
                    7e:69:6e:b5:4f:4b:14:90:82:b1:bd:83:d2:77:2d:
                    7a:c8:7c:b6:f0:6c:61:ca:0d:af:ec:27:5c:9a:30:
                    a7:5c:9f:c8:d3:9a:65:67:21:01:62:cd:eb:5f:68:
                    66:70:b5:85:07:29:c1:2f:3d:69:d5:16:ab:28:81:
                    8c:43:46:0d:3d:05:31:e6:b2:5e:02:30:a1:84:fb:
                    1b:b8:a0:0e:e0:b7:37:e2:48:d7:e6:a7:0b:c6:ab:
                    e2:f3:d9:15:c3:d7:58:31:13:c8:d7:28:55:c0:e3:
                    cb:50:53:14:80:ea:ec:e5:db:ab:5e:a1:64:17:88:
                    b3:07:9d:3d:b0:2a:0f:e1:21:fd:1b:41:1c:10:8a:
                    86:c4:b0:2f:4c:8f:9b:2a:83:86:cf:90:8b:4b:53:
                    19:83
                Exponent: 65537 (0x10001)
    Signature Algorithm: sha1WithRSAEncryption
         8a:62:69:e6:4c:5d:98:95:3a:dc:0a:6f:1b:21:f3:c3:63:c4:
         f2:9c:5f:31:81:c0:ce:18:32:84:ed:1c:03:50:62:cf:22:c6:
         c8:14:75:12:80:9e:cf:3c:52:60:de:21:8a:e8:a6:ad:20:d9:
         04:33:4c:70:0a:ce:89:62:86:01:fa:dd:03:1f:c9:d7:41:6f:
         4f:1b:73:20:36:9a:8f:4e:1b:13:a3:77:19:87:23:4b:b8:2f:
         ef:51:36:8a:14:8d:da:0f:82:16:b1:0b:7d:22:7e:f2:51:9d:
         01:35:56:c6:ce:2d:3a:6e:9b:bc:f5:da:a8:46:0a:ff:34:bb:
         0e:a4:9c:63:7c:88:ff:6d:a9:0a:12:49:58:11:6b:fa:c9:44:
         0d:27:f7:1f:d2:e0:31:19:01:4a:cb:bc:33:ad:96:a1:2e:d4:
         c8:05:58:5d:de:99:98:23:1e:7c:72:96:e1:5a:2d:e5:61:10:
         cd:7b:2f:c9:30:56:23:fe:15:37:8d:ef:74:34:75:44:10:a2:
         a9:42:44:3f:fa:c2:a3:e3:e4:d4:12:51:a2:76:29:83:fa:31:
         6f:08:52:7d:07:86:4c:d6:6e:17:f5:d4:ca:94:e7:ec:ea:de:
         d8:28:56:2b:e5:d6:2d:d2:d3:94:c1:bd:83:1c:d7:60:6a:99:
         20:ba:da:fa
-----BEGIN CERTIFICATE-----
MIIC3jCCAcYCCQCU+P/+hQ1X4zANBgkqhkiG9w0BAQUFADAxMQ8wDQYDVQQKDAZr
c25jdGYxHjAcBgNVBAMMFWtzbmN0Zi5zd2VldGR1ZXQuaW5mbzAeFw0xMzExMDQw
MTQ5NTZaFw0yMzExMDIwMTQ5NTZaMDExDzANBgNVBAoMBmtzbmN0ZjEeMBwGA1UE
AwwVa3NuY3RmLnN3ZWV0ZHVldC5pbmZvMIIBIjANBgkqhkiG9w0BAQEFAAOCAQ8A
MIIBCgKCAQEAun07HtZ9fs+tjVNr7jUxdHvpTqnkrBQDozAPvv38TuJBNiUZ+44o
uqJyeUCNMD84w64ZcrLNWxUu2qLpopIj8ckRmaA3TFoG0YwLVddnt4RFvnVcZXh6
i8XgqSiHKEV8kUQeAyFlBsh+aW61T0sUkIKxvYPSdy16yHy28Gxhyg2v7CdcmjCn
XJ/I05plZyEBYs3rX2hmcLWFBynBLz1p1RarKIGMQ0YNPQUx5rJeAjChhPsbuKAO
4Lc34kjX5qcLxqvi89kVw9dYMRPI1yhVwOPLUFMUgOrs5durXqFkF4izB509sCoP
4SH9G0EcEIqGxLAvTI+bKoOGz5CLS1MZgwIDAQABMA0GCSqGSIb3DQEBBQUAA4IB
AQCKYmnmTF2YlTrcCm8bIfPDY8TynF8xgcDOGDKE7RwDUGLPIsbIFHUSgJ7PPFJg
3iGK6KatINkEM0xwCs6JYoYB+t0DH8nXQW9PG3MgNpqPThsTo3cZhyNLuC/vUTaK
FI3aD4IWsQt9In7yUZ0BNVbGzi06bpu89dqoRgr/NLsOpJxjfIj/bakKEklYEWv6
yUQNJ/cf0uAxGQFKy7wzrZahLtTIBVhd3pmYIx58cpbhWi3lYRDNey/JMFYj/hU3
je90NHVEEKKpQkQ/+sKj4+TUElGidimD+jFvCFJ9B4ZM1m4X9dTKlOfs6t7YKFYr
5dYt0tOUwb2DHNdgapkgutr6
-----END CERTIFICATE-----
